target datalayout = "e-m:e-p270:32:32-p271:32:32-p272:64:64-i64:64-i128:128-f80:128-n8:16:32:64-S128"
target triple = "x86_64-pc-linux-gnu"

%union.float_conv = type { float }

@channel_position = global [7 x [6 x i8]] [[6 x i8] zeroinitializer, [6 x i8] c"\07\00\00\00\00\00", [6 x i8] c"\03\05\00\00\00\00", [6 x i8] c"\03\07\05\00\00\00", [6 x i8] c"\03\05\03\05\00\00", [6 x i8] c"\03\07\05\03\05\00", [6 x i8] c"\03\07\05\03\05\07"], align 16

; Function Attrs: nounwind uwtable
define void @compute_samples(i32 noundef %0, ptr noundef %1, i32 noundef %2, ptr noundef %3, i32 noundef %4, i32 noundef %5) #0 {
  %7 = alloca i32, align 4
  %8 = alloca ptr, align 8
  %9 = alloca i32, align 4
  %10 = alloca ptr, align 8
  %11 = alloca i32, align 4
  %12 = alloca i32, align 4
  %13 = alloca [32 x float], align 16
  %14 = alloca i32, align 4
  %15 = alloca i32, align 4
  %16 = alloca i32, align 4
  %17 = alloca i32, align 4
  %18 = alloca %union.float_conv, align 4
  %19 = alloca i32, align 4
  store i32 %0, ptr %7, align 4, !tbaa !8
  store ptr %1, ptr %8, align 8, !tbaa !62
  store i32 %2, ptr %9, align 4, !tbaa !8
  store ptr %3, ptr %10, align 8, !tbaa !108
  store i32 %4, ptr %11, align 4, !tbaa !8
  store i32 %5, ptr %12, align 4, !tbaa !8
  call void @llvm.lifetime.start.p0(i64 128, ptr %13) #11
  call void @llvm.lifetime.start.p0(i64 4, ptr %14) #11
  call void @llvm.lifetime.start.p0(i64 4, ptr %15) #11
  call void @llvm.lifetime.start.p0(i64 4, ptr %16) #11
  call void @llvm.lifetime.start.p0(i64 4, ptr %17) #11
  store i32 32, ptr %17, align 4, !tbaa !8
  store i32 0, ptr %16, align 4, !tbaa !8
  br label %20

20:                                               ; preds = %117, %6
  %21 = load i32, ptr %16, align 4, !tbaa !8
  %22 = load i32, ptr %12, align 4, !tbaa !8
  %23 = icmp slt i32 %21, %22
  br i1 %23, label %24, label %120

24:                                               ; preds = %20
  %25 = getelementptr inbounds [32 x float], ptr %13, i64 0, i64 0
  call void @llvm.memset.p0.i64(ptr align 16 %25, i8 0, i64 128, i1 false)
  %26 = load i32, ptr %16, align 4, !tbaa !8
  %27 = load i32, ptr %17, align 4, !tbaa !8
  %28 = add nsw i32 %26, %27
  %29 = load i32, ptr %12, align 4, !tbaa !8
  %30 = icmp sgt i32 %28, %29
  br i1 %30, label %31, label %35

31:                                               ; preds = %24
  %32 = load i32, ptr %12, align 4, !tbaa !8
  %33 = load i32, ptr %16, align 4, !tbaa !8
  %34 = sub nsw i32 %32, %33
  store i32 %34, ptr %17, align 4, !tbaa !8
  br label %35

35:                                               ; preds = %31, %24
  store i32 0, ptr %15, align 4, !tbaa !8
  br label %36

36:                                               ; preds = %81, %35
  %37 = load i32, ptr %15, align 4, !tbaa !8
  %38 = load i32, ptr %9, align 4, !tbaa !8
  %39 = icmp slt i32 %37, %38
  br i1 %39, label %40, label %84

40:                                               ; preds = %36
  %41 = load i32, ptr %9, align 4, !tbaa !8
  %42 = sext i32 %41 to i64
  %43 = getelementptr inbounds [7 x [6 x i8]], ptr @channel_position, i64 0, i64 %42
  %44 = load i32, ptr %15, align 4, !tbaa !8
  %45 = sext i32 %44 to i64
  %46 = getelementptr inbounds [6 x i8], ptr %43, i64 0, i64 %45
  %47 = load i8, ptr %46, align 1, !tbaa !30
  %48 = sext i8 %47 to i32
  %49 = load i32, ptr %7, align 4, !tbaa !8
  %50 = and i32 %48, %49
  %51 = icmp ne i32 %50, 0
  br i1 %51, label %52, label %80

52:                                               ; preds = %40
  store i32 0, ptr %14, align 4, !tbaa !8
  br label %53

53:                                               ; preds = %76, %52
  %54 = load i32, ptr %14, align 4, !tbaa !8
  %55 = load i32, ptr %17, align 4, !tbaa !8
  %56 = icmp slt i32 %54, %55
  br i1 %56, label %57, label %79

57:                                               ; preds = %53
  %58 = load ptr, ptr %10, align 8, !tbaa !108
  %59 = load i32, ptr %15, align 4, !tbaa !8
  %60 = sext i32 %59 to i64
  %61 = getelementptr inbounds ptr, ptr %58, i64 %60
  %62 = load ptr, ptr %61, align 8, !tbaa !58
  %63 = load i32, ptr %11, align 4, !tbaa !8
  %64 = load i32, ptr %16, align 4, !tbaa !8
  %65 = add nsw i32 %63, %64
  %66 = load i32, ptr %14, align 4, !tbaa !8
  %67 = add nsw i32 %65, %66
  %68 = sext i32 %67 to i64
  %69 = getelementptr inbounds float, ptr %62, i64 %68
  %70 = load float, ptr %69, align 4, !tbaa !28
  %71 = load i32, ptr %14, align 4, !tbaa !8
  %72 = sext i32 %71 to i64
  %73 = getelementptr inbounds [32 x float], ptr %13, i64 0, i64 %72
  %74 = load float, ptr %73, align 4, !tbaa !28
  %75 = fadd float %74, %70
  store float %75, ptr %73, align 4, !tbaa !28
  br label %76

76:                                               ; preds = %57
  %77 = load i32, ptr %14, align 4, !tbaa !8
  %78 = add nsw i32 %77, 1
  store i32 %78, ptr %14, align 4, !tbaa !8
  br label %53, !llvm.loop !339

79:                                               ; preds = %53
  br label %80

80:                                               ; preds = %79, %40
  br label %81

81:                                               ; preds = %80
  %82 = load i32, ptr %15, align 4, !tbaa !8
  %83 = add nsw i32 %82, 1
  store i32 %83, ptr %15, align 4, !tbaa !8
  br label %36, !llvm.loop !340

84:                                               ; preds = %36
  store i32 0, ptr %14, align 4, !tbaa !8
  br label %85

85:                                               ; preds = %113, %84
  %86 = load i32, ptr %14, align 4, !tbaa !8
  %87 = load i32, ptr %17, align 4, !tbaa !8
  %88 = icmp slt i32 %86, %87
  br i1 %88, label %89, label %116

89:                                               ; preds = %85
  call void @llvm.lifetime.start.p0(i64 4, ptr %18) #11
  call void @llvm.lifetime.start.p0(i64 4, ptr %19) #11
  %90 = load i32, ptr %14, align 4, !tbaa !8
  %91 = sext i32 %90 to i64
  %92 = getelementptr inbounds [32 x float], ptr %13, i64 0, i64 %91
  %93 = load float, ptr %92, align 4, !tbaa !28
  %94 = fadd float %93, 3.840000e+02
  store float %94, ptr %18, align 4, !tbaa !30
  %95 = load i32, ptr %18, align 4, !tbaa !30
  %96 = sub nsw i32 %95, 1136656384
  store i32 %96, ptr %19, align 4, !tbaa !8
  %97 = load i32, ptr %19, align 4, !tbaa !8
  %98 = add nsw i32 %97, 32768
  %99 = icmp ugt i32 %98, 65535
  br i1 %99, label %100, label %104

100:                                              ; preds = %89
  %101 = load i32, ptr %19, align 4, !tbaa !8
  %102 = icmp slt i32 %101, 0
  %103 = select i1 %102, i32 -32768, i32 32767
  store i32 %103, ptr %19, align 4, !tbaa !8
  br label %104

104:                                              ; preds = %100, %89
  %105 = load i32, ptr %19, align 4, !tbaa !8
  %106 = trunc i32 %105 to i16
  %107 = load ptr, ptr %8, align 8, !tbaa !62
  %108 = load i32, ptr %16, align 4, !tbaa !8
  %109 = load i32, ptr %14, align 4, !tbaa !8
  %110 = add nsw i32 %108, %109
  %111 = sext i32 %110 to i64
  %112 = getelementptr inbounds i16, ptr %107, i64 %111
  store i16 %106, ptr %112, align 2, !tbaa !45
  call void @llvm.lifetime.end.p0(i64 4, ptr %19) #11
  call void @llvm.lifetime.end.p0(i64 4, ptr %18) #11
  br label %113

113:                                              ; preds = %104
  %114 = load i32, ptr %14, align 4, !tbaa !8
  %115 = add nsw i32 %114, 1
  store i32 %115, ptr %14, align 4, !tbaa !8
  br label %85, !llvm.loop !341

116:                                              ; preds = %85
  br label %117

117:                                              ; preds = %116
  %118 = load i32, ptr %16, align 4, !tbaa !8
  %119 = add nsw i32 %118, 32
  store i32 %119, ptr %16, align 4, !tbaa !8
  br label %20, !llvm.loop !342

120:                                              ; preds = %20
  call void @llvm.lifetime.end.p0(i64 4, ptr %17) #11
  call void @llvm.lifetime.end.p0(i64 4, ptr %16) #11
  call void @llvm.lifetime.end.p0(i64 4, ptr %15) #11
  call void @llvm.lifetime.end.p0(i64 4, ptr %14) #11
  call void @llvm.lifetime.end.p0(i64 128, ptr %13) #11
  ret void
}