; Function Attrs: nofree norecurse nosync nounwind memory(read, argmem: readwrite, inaccessiblemem: none) uwtable
define void @compute_samples(i32 noundef %0, ptr noundef writeonly captures(none) %1, i32 noundef %2, ptr noundef readonly captures(none) %3, i32 noundef %4, i32 noundef %5) local_unnamed_addr #15 {
  %7 = alloca [32 x float], align 16
  call void @llvm.lifetime.start.p0(i64 128, ptr nonnull %7) #35
  %8 = icmp sgt i32 %5, 0
  br i1 %8, label %.lr.ph47, label %._crit_edge48

.lr.ph47:                                         ; preds = %6
  %9 = icmp sgt i32 %2, 0
  %10 = sext i32 %2 to i64
  %11 = zext nneg i32 %5 to i64
  br i1 %9, label %.lr.ph42.us.preheader, label %.preheader39

.lr.ph42.us.preheader:                            ; preds = %.lr.ph47
  %12 = sext i32 %4 to i64
  %wide.trip.count66 = zext nneg i32 %2 to i64
  br label %.lr.ph42.us

.lr.ph42.us:                                      ; preds = %.lr.ph42.us.preheader, %._crit_edge.us
  %indvars.iv73 = phi i64 [ 0, %.lr.ph42.us.preheader ], [ %indvars.iv.next74, %._crit_edge.us ]
  %.03345.us = phi i32 [ 32, %.lr.ph42.us.preheader ], [ %spec.select.us.fr, %._crit_edge.us ]
  %indvars75 = trunc i64 %indvars.iv73 to i32
  call void @llvm.memset.p0.i64(ptr noundef nonnull align 16 dereferenceable(128) %7, i8 0, i64 128, i1 false)
  %13 = add nsw i32 %.03345.us, %indvars75
  %14 = icmp sgt i32 %13, %5
  %15 = trunc i64 %indvars.iv73 to i32
  %16 = sub i32 %5, %15
  %spec.select.us = select i1 %14, i32 %16, i32 %.03345.us
  %spec.select.us.fr = freeze i32 %spec.select.us
  %17 = icmp sgt i32 %spec.select.us.fr, 0
  br i1 %17, label %.lr.ph42.split.us.us.preheader, label %._crit_edge.us

.lr.ph42.split.us.us.preheader:                   ; preds = %.lr.ph42.us
  %wide.trip.count = zext nneg i32 %spec.select.us.fr to i64
  br label %.lr.ph42.split.us.us

._crit_edge.us:                                   ; preds = %.lr.ph.us, %.lr.ph42.us
  %indvars.iv.next74 = add nuw nsw i64 %indvars.iv73, 32
  %18 = icmp samesign ult i64 %indvars.iv.next74, %11
  br i1 %18, label %.lr.ph42.us, label %._crit_edge48, !llvm.loop !326

.lr.ph.us:                                        ; preds = %.lr.ph.us.preheader, %.lr.ph.us
  %indvars.iv68 = phi i64 [ 0, %.lr.ph.us.preheader ], [ %indvars.iv.next69, %.lr.ph.us ]
  %19 = getelementptr inbounds nuw [32 x float], ptr %7, i64 0, i64 %indvars.iv68
  %20 = load float, ptr %19, align 4, !tbaa !48
  %21 = fadd float %20, 3.840000e+02
  %22 = bitcast float %21 to i32
  %23 = tail call i32 @llvm.smax.i32(i32 %22, i32 1136623616)
  %24 = tail call i32 @llvm.umin.i32(i32 %23, i32 1136689151)
  %25 = trunc i32 %24 to i16
  %gep78 = getelementptr inbounds nuw i16, ptr %invariant.gep77, i64 %indvars.iv68
  store i16 %25, ptr %gep78, align 2, !tbaa !36
  %indvars.iv.next69 = add nuw nsw i64 %indvars.iv68, 1
  %exitcond72.not = icmp eq i64 %indvars.iv.next69, %wide.trip.count71
  br i1 %exitcond72.not, label %._crit_edge.us, label %.lr.ph.us, !llvm.loop !327

.lr.ph.us.preheader:                              ; preds = %..loopexit_crit_edge.us.us
  %wide.trip.count71 = zext nneg i32 %spec.select.us.fr to i64
  %invariant.gep77 = getelementptr inbounds nuw i16, ptr %1, i64 %indvars.iv73
  br label %.lr.ph.us

.lr.ph42.split.us.us:                             ; preds = %.lr.ph42.split.us.us.preheader, %..loopexit_crit_edge.us.us
  %indvars.iv63 = phi i64 [ 0, %.lr.ph42.split.us.us.preheader ], [ %indvars.iv.next64, %..loopexit_crit_edge.us.us ]
  %26 = getelementptr inbounds nuw [7 x [6 x i8]], ptr @channel_position, i64 0, i64 %10, i64 %indvars.iv63
  %27 = load i8, ptr %26, align 1, !tbaa !23
  %28 = sext i8 %27 to i32
  %29 = and i32 %0, %28
  %.not.us.us = icmp eq i32 %29, 0
  br i1 %.not.us.us, label %..loopexit_crit_edge.us.us, label %.preheader.us.us

30:                                               ; preds = %.preheader.us.us, %30
  %indvars.iv60 = phi i64 [ 0, %.preheader.us.us ], [ %indvars.iv.next61, %30 ]
  %31 = getelementptr float, ptr %39, i64 %indvars.iv60
  %32 = load float, ptr %31, align 4, !tbaa !48
  %33 = getelementptr inbounds nuw [32 x float], ptr %7, i64 0, i64 %indvars.iv60
  %34 = load float, ptr %33, align 4, !tbaa !48
  %35 = fadd float %32, %34
  store float %35, ptr %33, align 4, !tbaa !48
  %indvars.iv.next61 = add nuw nsw i64 %indvars.iv60, 1
  %exitcond.not = icmp eq i64 %indvars.iv.next61, %wide.trip.count
  br i1 %exitcond.not, label %..loopexit_crit_edge.us.us, label %30, !llvm.loop !328

..loopexit_crit_edge.us.us:                       ; preds = %30, %.lr.ph42.split.us.us
  %indvars.iv.next64 = add nuw nsw i64 %indvars.iv63, 1
  %exitcond67.not = icmp eq i64 %indvars.iv.next64, %wide.trip.count66
  br i1 %exitcond67.not, label %.lr.ph.us.preheader, label %.lr.ph42.split.us.us, !llvm.loop !329

.preheader.us.us:                                 ; preds = %.lr.ph42.split.us.us
  %36 = getelementptr inbounds nuw ptr, ptr %3, i64 %indvars.iv63
  %37 = load ptr, ptr %36, align 8, !tbaa !53
  %38 = getelementptr float, ptr %37, i64 %indvars.iv73
  %39 = getelementptr float, ptr %38, i64 %12
  br label %30

.preheader39:                                     ; preds = %.lr.ph47, %._crit_edge
  %indvars.iv57 = phi i64 [ %indvars.iv.next58, %._crit_edge ], [ 0, %.lr.ph47 ]
  %.03345 = phi i32 [ %spec.select, %._crit_edge ], [ 32, %.lr.ph47 ]
  call void @llvm.memset.p0.i64(ptr noundef nonnull align 16 dereferenceable(128) %7, i8 0, i64 128, i1 false)
  %40 = trunc nuw nsw i64 %indvars.iv57 to i32
  %41 = add nsw i32 %.03345, %40
  %42 = icmp sgt i32 %41, %5
  %43 = trunc i64 %indvars.iv57 to i32
  %44 = sub i32 %5, %43
  %spec.select = select i1 %42, i32 %44, i32 %.03345
  %45 = icmp sgt i32 %spec.select, 0
  br i1 %45, label %.lr.ph.preheader, label %._crit_edge

.lr.ph.preheader:                                 ; preds = %.preheader39
  %46 = zext nneg i32 %spec.select to i64
  %invariant.gep = getelementptr inbounds nuw i16, ptr %1, i64 %indvars.iv57
  br label %.lr.ph

.lr.ph:                                           ; preds = %.lr.ph.preheader, %.lr.ph
  %indvars.iv = phi i64 [ 0, %.lr.ph.preheader ], [ %indvars.iv.next, %.lr.ph ]
  %47 = getelementptr inbounds nuw [32 x float], ptr %7, i64 0, i64 %indvars.iv
  %48 = load float, ptr %47, align 4, !tbaa !48
  %49 = fadd float %48, 3.840000e+02
  %50 = bitcast float %49 to i32
  %51 = tail call i32 @llvm.smax.i32(i32 %50, i32 1136623616)
  %52 = tail call i32 @llvm.umin.i32(i32 %51, i32 1136689151)
  %53 = trunc i32 %52 to i16
  %gep = getelementptr inbounds nuw i16, ptr %invariant.gep, i64 %indvars.iv
  store i16 %53, ptr %gep, align 2, !tbaa !36
  %indvars.iv.next = add nuw nsw i64 %indvars.iv, 1
  %54 = icmp samesign ult i64 %indvars.iv.next, %46
  br i1 %54, label %.lr.ph, label %._crit_edge, !llvm.loop !327

._crit_edge:                                      ; preds = %.lr.ph, %.preheader39
  %indvars.iv.next58 = add nuw nsw i64 %indvars.iv57, 32
  %55 = icmp samesign ult i64 %indvars.iv.next58, %11
  br i1 %55, label %.preheader39, label %._crit_edge48, !llvm.loop !326

._crit_edge48:                                    ; preds = %._crit_edge, %._crit_edge.us, %6
  call void @llvm.lifetime.end.p0(i64 128, ptr nonnull %7) #35
  ret void
}